target datalayout = "e-m:e-p270:32:32-p271:32:32-p272:64:64-i64:64-i128:128-f80:128-n8:16:32:64-S128"
target triple = "x86_64-pc-linux-gnu"

%struct.FFIOContext = type { %struct.AVIOContext, ptr, i32, i32, i64, i64, i64, i64, i32, i32, i32, i64 }
%struct.AVIOContext = type { ptr, ptr, i32, ptr, ptr, ptr, ptr, ptr, ptr, i64, i32, i32, i32, i32, i32, i64, ptr, ptr, ptr, ptr, i32, i32, ptr, ptr, ptr, i32, ptr, i64, i64 }

; Function Attrs: nounwind uwtable
define i32 @avio_feof(ptr noundef %0) #0 {
  %2 = alloca i32, align 4
  %3 = alloca ptr, align 8
  store ptr %0, ptr %3, align 8, !tbaa !14
  %4 = load ptr, ptr %3, align 8, !tbaa !14
  %5 = icmp ne ptr %4, null
  br i1 %5, label %7, label %6

6:                                                ; preds = %1
  store i32 0, ptr %2, align 4
  br label %20

7:                                                ; preds = %1
  %8 = load ptr, ptr %3, align 8, !tbaa !14
  %9 = getelementptr inbounds nuw %struct.AVIOContext, ptr %8, i32 0, i32 10
  %10 = load i32, ptr %9, align 8, !tbaa !31
  %11 = icmp ne i32 %10, 0
  br i1 %11, label %12, label %16

12:                                               ; preds = %7
  %13 = load ptr, ptr %3, align 8, !tbaa !14
  %14 = getelementptr inbounds nuw %struct.AVIOContext, ptr %13, i32 0, i32 10
  store i32 0, ptr %14, align 8, !tbaa !31
  %15 = load ptr, ptr %3, align 8, !tbaa !14
  call void @fill_buffer(ptr noundef %15)
  br label %16

16:                                               ; preds = %12, %7
  %17 = load ptr, ptr %3, align 8, !tbaa !14
  %18 = getelementptr inbounds nuw %struct.AVIOContext, ptr %17, i32 0, i32 10
  %19 = load i32, ptr %18, align 8, !tbaa !31
  store i32 %19, ptr %2, align 4
  br label %20

20:                                               ; preds = %16, %6
  %21 = load i32, ptr %2, align 4
  ret i32 %21
}

; Function Attrs: alwaysinline nounwind uwtable
define internal ptr @ffiocontext(ptr noundef %0) #5 {
  %2 = alloca ptr, align 8
  store ptr %0, ptr %2, align 8, !tbaa !14
  %3 = load ptr, ptr %2, align 8, !tbaa !14
  ret ptr %3
}

; Function Attrs: nounwind uwtable
define internal i32 @read_packet_wrapper(ptr noundef %0, ptr noundef %1, i32 noundef %2) #0 {
  %4 = alloca i32, align 4
  %5 = alloca ptr, align 8
  %6 = alloca ptr, align 8
  %7 = alloca i32, align 4
  %8 = alloca i32, align 4
  %9 = alloca i32, align 4
  store ptr %0, ptr %5, align 8, !tbaa !14
  store ptr %1, ptr %6, align 8, !tbaa !9
  store i32 %2, ptr %7, align 4, !tbaa !11
  call void @llvm.lifetime.start.p0(i64 4, ptr %8) #12
  %10 = load ptr, ptr %5, align 8, !tbaa !14
  %11 = getelementptr inbounds nuw %struct.AVIOContext, ptr %10, i32 0, i32 6
  %12 = load ptr, ptr %11, align 8, !tbaa !28
  %13 = icmp ne ptr %12, null
  br i1 %13, label %15, label %14

14:                                               ; preds = %3
  store i32 -22, ptr %4, align 4
  store i32 1, ptr %9, align 4
  br label %26

15:                                               ; preds = %3
  %16 = load ptr, ptr %5, align 8, !tbaa !14
  %17 = getelementptr inbounds nuw %struct.AVIOContext, ptr %16, i32 0, i32 6
  %18 = load ptr, ptr %17, align 8, !tbaa !28
  %19 = load ptr, ptr %5, align 8, !tbaa !14
  %20 = getelementptr inbounds nuw %struct.AVIOContext, ptr %19, i32 0, i32 5
  %21 = load ptr, ptr %20, align 8, !tbaa !25
  %22 = load ptr, ptr %6, align 8, !tbaa !9
  %23 = load i32, ptr %7, align 4, !tbaa !11
  %24 = call i32 %18(ptr noundef %21, ptr noundef %22, i32 noundef %23)
  store i32 %24, ptr %8, align 4, !tbaa !11
  %25 = load i32, ptr %8, align 4, !tbaa !11
  store i32 %25, ptr %4, align 4
  store i32 1, ptr %9, align 4
  br label %26

26:                                               ; preds = %15, %14
  call void @llvm.lifetime.end.p0(i64 4, ptr %8) #12
  %27 = load i32, ptr %4, align 4
  ret i32 %27
}

; Function Attrs: nounwind uwtable
define i32 @avio_read(ptr noundef %0, ptr noundef %1, i32 noundef %2) #0 {
  %4 = alloca i32, align 4
  %5 = alloca ptr, align 8
  %6 = alloca ptr, align 8
  %7 = alloca i32, align 4
  %8 = alloca i32, align 4
  %9 = alloca i32, align 4
  %10 = alloca i32, align 4
  store ptr %0, ptr %5, align 8, !tbaa !14
  store ptr %1, ptr %6, align 8, !tbaa !9
  store i32 %2, ptr %7, align 4, !tbaa !11
  call void @llvm.lifetime.start.p0(i64 4, ptr %8) #12
  call void @llvm.lifetime.start.p0(i64 4, ptr %9) #12
  %11 = load i32, ptr %7, align 4, !tbaa !11
  store i32 %11, ptr %9, align 4, !tbaa !11
  br label %12

12:                                               ; preds = %167, %3
  %13 = load i32, ptr %7, align 4, !tbaa !11
  %14 = icmp sgt i32 %13, 0
  br i1 %14, label %15, label %168

15:                                               ; preds = %12
  %16 = load ptr, ptr %5, align 8, !tbaa !14
  %17 = getelementptr inbounds nuw %struct.AVIOContext, ptr %16, i32 0, i32 4
  %18 = load ptr, ptr %17, align 8, !tbaa !38
  %19 = load ptr, ptr %5, align 8, !tbaa !14
  %20 = getelementptr inbounds nuw %struct.AVIOContext, ptr %19, i32 0, i32 3
  %21 = load ptr, ptr %20, align 8, !tbaa !23
  %22 = ptrtoint ptr %18 to i64
  %23 = ptrtoint ptr %21 to i64
  %24 = sub i64 %22, %23
  %25 = load i32, ptr %7, align 4, !tbaa !11
  %26 = sext i32 %25 to i64
  %27 = icmp sgt i64 %24, %26
  br i1 %27, label %28, label %31

28:                                               ; preds = %15
  %29 = load i32, ptr %7, align 4, !tbaa !11
  %30 = sext i32 %29 to i64
  br label %41

31:                                               ; preds = %15
  %32 = load ptr, ptr %5, align 8, !tbaa !14
  %33 = getelementptr inbounds nuw %struct.AVIOContext, ptr %32, i32 0, i32 4
  %34 = load ptr, ptr %33, align 8, !tbaa !38
  %35 = load ptr, ptr %5, align 8, !tbaa !14
  %36 = getelementptr inbounds nuw %struct.AVIOContext, ptr %35, i32 0, i32 3
  %37 = load ptr, ptr %36, align 8, !tbaa !23
  %38 = ptrtoint ptr %34 to i64
  %39 = ptrtoint ptr %37 to i64
  %40 = sub i64 %38, %39
  br label %41

41:                                               ; preds = %31, %28
  %42 = phi i64 [ %30, %28 ], [ %40, %31 ]
  %43 = trunc i64 %42 to i32
  store i32 %43, ptr %8, align 4, !tbaa !11
  %44 = load i32, ptr %8, align 4, !tbaa !11
  %45 = icmp eq i32 %44, 0
  br i1 %45, label %51, label %46

46:                                               ; preds = %41
  %47 = load ptr, ptr %5, align 8, !tbaa !14
  %48 = getelementptr inbounds nuw %struct.AVIOContext, ptr %47, i32 0, i32 12
  %49 = load i32, ptr %48, align 8, !tbaa !46
  %50 = icmp ne i32 %49, 0
  br i1 %50, label %51, label %147

51:                                               ; preds = %46, %41
  %52 = load ptr, ptr %5, align 8, !tbaa !14
  %53 = getelementptr inbounds nuw %struct.AVIOContext, ptr %52, i32 0, i32 21
  %54 = load i32, ptr %53, align 4, !tbaa !26
  %55 = icmp ne i32 %54, 0
  br i1 %55, label %62, label %56

56:                                               ; preds = %51
  %57 = load i32, ptr %7, align 4, !tbaa !11
  %58 = load ptr, ptr %5, align 8, !tbaa !14
  %59 = getelementptr inbounds nuw %struct.AVIOContext, ptr %58, i32 0, i32 2
  %60 = load i32, ptr %59, align 8, !tbaa !20
  %61 = icmp sgt i32 %57, %60
  br i1 %61, label %62, label %130

62:                                               ; preds = %56, %51
  %63 = load ptr, ptr %5, align 8, !tbaa !14
  %64 = getelementptr inbounds nuw %struct.AVIOContext, ptr %63, i32 0, i32 17
  %65 = load ptr, ptr %64, align 8, !tbaa !36
  %66 = icmp ne ptr %65, null
  br i1 %66, label %130, label %67

67:                                               ; preds = %62
  %68 = load ptr, ptr %5, align 8, !tbaa !14
  %69 = getelementptr inbounds nuw %struct.AVIOContext, ptr %68, i32 0, i32 6
  %70 = load ptr, ptr %69, align 8, !tbaa !28
  %71 = icmp ne ptr %70, null
  br i1 %71, label %72, label %130

72:                                               ; preds = %67
  %73 = load ptr, ptr %5, align 8, !tbaa !14
  %74 = load ptr, ptr %6, align 8, !tbaa !9
  %75 = load i32, ptr %7, align 4, !tbaa !11
  %76 = call i32 @read_packet_wrapper(ptr noundef %73, ptr noundef %74, i32 noundef %75)
  store i32 %76, ptr %8, align 4, !tbaa !11
  %77 = load i32, ptr %8, align 4, !tbaa !11
  %78 = icmp eq i32 %77, -541478725
  br i1 %78, label %79, label %82

79:                                               ; preds = %72
  %80 = load ptr, ptr %5, align 8, !tbaa !14
  %81 = getelementptr inbounds nuw %struct.AVIOContext, ptr %80, i32 0, i32 10
  store i32 1, ptr %81, align 8, !tbaa !31
  br label %168

82:                                               ; preds = %72
  %83 = load i32, ptr %8, align 4, !tbaa !11
  %84 = icmp slt i32 %83, 0
  br i1 %84, label %85, label %91

85:                                               ; preds = %82
  %86 = load ptr, ptr %5, align 8, !tbaa !14
  %87 = getelementptr inbounds nuw %struct.AVIOContext, ptr %86, i32 0, i32 10
  store i32 1, ptr %87, align 8, !tbaa !31
  %88 = load i32, ptr %8, align 4, !tbaa !11
  %89 = load ptr, ptr %5, align 8, !tbaa !14
  %90 = getelementptr inbounds nuw %struct.AVIOContext, ptr %89, i32 0, i32 11
  store i32 %88, ptr %90, align 4, !tbaa !32
  br label %168

91:                                               ; preds = %82
  %92 = load i32, ptr %8, align 4, !tbaa !11
  %93 = sext i32 %92 to i64
  %94 = load ptr, ptr %5, align 8, !tbaa !14
  %95 = getelementptr inbounds nuw %struct.AVIOContext, ptr %94, i32 0, i32 9
  %96 = load i64, ptr %95, align 8, !tbaa !30
  %97 = add nsw i64 %96, %93
  store i64 %97, ptr %95, align 8, !tbaa !30
  %98 = load i32, ptr %8, align 4, !tbaa !11
  %99 = sext i32 %98 to i64
  %100 = load ptr, ptr %5, align 8, !tbaa !14
  %101 = call ptr @ffiocontext(ptr noundef %100)
  %102 = getelementptr inbounds nuw %struct.FFIOContext, ptr %101, i32 0, i32 6
  %103 = load i64, ptr %102, align 8, !tbaa !63
  %104 = add nsw i64 %103, %99
  store i64 %104, ptr %102, align 8, !tbaa !63
  %105 = load ptr, ptr %5, align 8, !tbaa !14
  %106 = call ptr @ffiocontext(ptr noundef %105)
  %107 = getelementptr inbounds nuw %struct.FFIOContext, ptr %106, i32 0, i32 6
  %108 = load i64, ptr %107, align 8, !tbaa !63
  %109 = load ptr, ptr %5, align 8, !tbaa !14
  %110 = getelementptr inbounds nuw %struct.AVIOContext, ptr %109, i32 0, i32 27
  store i64 %108, ptr %110, align 8, !tbaa !64
  %111 = load i32, ptr %8, align 4, !tbaa !11
  %112 = load i32, ptr %7, align 4, !tbaa !11
  %113 = sub nsw i32 %112, %111
  store i32 %113, ptr %7, align 4, !tbaa !11
  %114 = load i32, ptr %8, align 4, !tbaa !11
  %115 = load ptr, ptr %6, align 8, !tbaa !9
  %116 = sext i32 %114 to i64
  %117 = getelementptr inbounds i8, ptr %115, i64 %116
  store ptr %117, ptr %6, align 8, !tbaa !9
  %118 = load ptr, ptr %5, align 8, !tbaa !14
  %119 = getelementptr inbounds nuw %struct.AVIOContext, ptr %118, i32 0, i32 1
  %120 = load ptr, ptr %119, align 8, !tbaa !16
  %121 = load ptr, ptr %5, align 8, !tbaa !14
  %122 = getelementptr inbounds nuw %struct.AVIOContext, ptr %121, i32 0, i32 3
  store ptr %120, ptr %122, align 8, !tbaa !23
  %123 = load ptr, ptr %5, align 8, !tbaa !14
  %124 = getelementptr inbounds nuw %struct.AVIOContext, ptr %123, i32 0, i32 1
  %125 = load ptr, ptr %124, align 8, !tbaa !16
  %126 = load ptr, ptr %5, align 8, !tbaa !14
  %127 = getelementptr inbounds nuw %struct.AVIOContext, ptr %126, i32 0, i32 4
  store ptr %125, ptr %127, align 8, !tbaa !38
  br label %128

128:                                              ; preds = %91
  br label %129

129:                                              ; preds = %128
  br label %146

130:                                              ; preds = %67, %62, %56
  %131 = load ptr, ptr %5, align 8, !tbaa !14
  call void @fill_buffer(ptr noundef %131)
  %132 = load ptr, ptr %5, align 8, !tbaa !14
  %133 = getelementptr inbounds nuw %struct.AVIOContext, ptr %132, i32 0, i32 4
  %134 = load ptr, ptr %133, align 8, !tbaa !38
  %135 = load ptr, ptr %5, align 8, !tbaa !14
  %136 = getelementptr inbounds nuw %struct.AVIOContext, ptr %135, i32 0, i32 3
  %137 = load ptr, ptr %136, align 8, !tbaa !23
  %138 = ptrtoint ptr %134 to i64
  %139 = ptrtoint ptr %137 to i64
  %140 = sub i64 %138, %139
  %141 = trunc i64 %140 to i32
  store i32 %141, ptr %8, align 4, !tbaa !11
  %142 = load i32, ptr %8, align 4, !tbaa !11
  %143 = icmp eq i32 %142, 0
  br i1 %143, label %144, label %145

144:                                              ; preds = %130
  br label %168

145:                                              ; preds = %130
  br label %146

146:                                              ; preds = %145, %129
  br label %167

147:                                              ; preds = %46
  %148 = load ptr, ptr %6, align 8, !tbaa !9
  %149 = load ptr, ptr %5, align 8, !tbaa !14
  %150 = getelementptr inbounds nuw %struct.AVIOContext, ptr %149, i32 0, i32 3
  %151 = load ptr, ptr %150, align 8, !tbaa !23
  %152 = load i32, ptr %8, align 4, !tbaa !11
  %153 = sext i32 %152 to i64
  call void @llvm.memcpy.p0.p0.i64(ptr align 1 %148, ptr align 1 %151, i64 %153, i1 false)
  %154 = load i32, ptr %8, align 4, !tbaa !11
  %155 = load ptr, ptr %6, align 8, !tbaa !9
  %156 = sext i32 %154 to i64
  %157 = getelementptr inbounds i8, ptr %155, i64 %156
  store ptr %157, ptr %6, align 8, !tbaa !9
  %158 = load i32, ptr %8, align 4, !tbaa !11
  %159 = load ptr, ptr %5, align 8, !tbaa !14
  %160 = getelementptr inbounds nuw %struct.AVIOContext, ptr %159, i32 0, i32 3
  %161 = load ptr, ptr %160, align 8, !tbaa !23
  %162 = sext i32 %158 to i64
  %163 = getelementptr inbounds i8, ptr %161, i64 %162
  store ptr %163, ptr %160, align 8, !tbaa !23
  %164 = load i32, ptr %8, align 4, !tbaa !11
  %165 = load i32, ptr %7, align 4, !tbaa !11
  %166 = sub nsw i32 %165, %164
  store i32 %166, ptr %7, align 4, !tbaa !11
  br label %167

167:                                              ; preds = %147, %146
  br label %12, !llvm.loop !69

168:                                              ; preds = %144, %85, %79, %12
  %169 = load i32, ptr %9, align 4, !tbaa !11
  %170 = load i32, ptr %7, align 4, !tbaa !11
  %171 = icmp eq i32 %169, %170
  br i1 %171, label %172, label %187

172:                                              ; preds = %168
  %173 = load ptr, ptr %5, align 8, !tbaa !14
  %174 = getelementptr inbounds nuw %struct.AVIOContext, ptr %173, i32 0, i32 11
  %175 = load i32, ptr %174, align 4, !tbaa !32
  %176 = icmp ne i32 %175, 0
  br i1 %176, label %177, label %181

177:                                              ; preds = %172
  %178 = load ptr, ptr %5, align 8, !tbaa !14
  %179 = getelementptr inbounds nuw %struct.AVIOContext, ptr %178, i32 0, i32 11
  %180 = load i32, ptr %179, align 4, !tbaa !32
  store i32 %180, ptr %4, align 4
  store i32 1, ptr %10, align 4
  br label %191

181:                                              ; preds = %172
  %182 = load ptr, ptr %5, align 8, !tbaa !14
  %183 = call i32 @avio_feof(ptr noundef %182)
  %184 = icmp ne i32 %183, 0
  br i1 %184, label %185, label %186

185:                                              ; preds = %181
  store i32 -541478725, ptr %4, align 4
  store i32 1, ptr %10, align 4
  br label %191

186:                                              ; preds = %181
  br label %187

187:                                              ; preds = %186, %168
  %188 = load i32, ptr %9, align 4, !tbaa !11
  %189 = load i32, ptr %7, align 4, !tbaa !11
  %190 = sub nsw i32 %188, %189
  store i32 %190, ptr %4, align 4
  store i32 1, ptr %10, align 4
  br label %191

191:                                              ; preds = %187, %185, %177
  call void @llvm.lifetime.end.p0(i64 4, ptr %9) #12
  call void @llvm.lifetime.end.p0(i64 4, ptr %8) #12
  %192 = load i32, ptr %4, align 4
  ret i32 %192
}