; Function Attrs: nounwind uwtable
define i32 @avio_read(ptr noundef %0, ptr noundef %1, i32 noundef %2) local_unnamed_addr #3 {
  %4 = icmp sgt i32 %2, 0
  br i1 %4, label %.lr.ph, label %.loopexit.thread

.lr.ph:                                           ; preds = %3
  %5 = getelementptr inbounds nuw i8, ptr %0, i64 32
  %6 = getelementptr inbounds nuw i8, ptr %0, i64 24
  %7 = getelementptr inbounds nuw i8, ptr %0, i64 88
  %8 = getelementptr inbounds nuw i8, ptr %0, i64 148
  %9 = getelementptr inbounds nuw i8, ptr %0, i64 16
  %10 = getelementptr inbounds nuw i8, ptr %0, i64 120
  %11 = getelementptr inbounds nuw i8, ptr %0, i64 48
  %12 = getelementptr inbounds nuw i8, ptr %0, i64 40
  %13 = getelementptr inbounds nuw i8, ptr %0, i64 72
  %14 = getelementptr inbounds nuw i8, ptr %0, i64 240
  %15 = getelementptr inbounds nuw i8, ptr %0, i64 192
  %16 = getelementptr inbounds nuw i8, ptr %0, i64 8
  %.pre = load ptr, ptr %6, align 8, !tbaa !16
  br label %17

17:                                               ; preds = %.lr.ph, %71
  %18 = phi ptr [ %.pre, %.lr.ph ], [ %72, %71 ]
  %.05880 = phi i32 [ %2, %.lr.ph ], [ %.1, %71 ]
  %.05979 = phi ptr [ %1, %.lr.ph ], [ %.160, %71 ]
  %19 = load ptr, ptr %5, align 8, !tbaa !19
  %20 = ptrtoint ptr %19 to i64
  %21 = ptrtoint ptr %18 to i64
  %22 = sub i64 %20, %21
  %23 = zext nneg i32 %.05880 to i64
  %24 = tail call i64 @llvm.smin.i64(i64 %22, i64 %23)
  %25 = trunc i64 %24 to i32
  %26 = icmp eq i32 %25, 0
  br i1 %26, label %29, label %27

27:                                               ; preds = %17
  %28 = load i32, ptr %7, align 8, !tbaa !20
  %.not = icmp eq i32 %28, 0
  br i1 %.not, label %65, label %29

29:                                               ; preds = %27, %17
  %30 = load i32, ptr %8, align 4, !tbaa !44
  %.not66 = icmp eq i32 %30, 0
  br i1 %.not66, label %31, label %34

31:                                               ; preds = %29
  %32 = load i32, ptr %9, align 8, !tbaa !13
  %33 = icmp sgt i32 %.05880, %32
  br i1 %33, label %34, label %57

34:                                               ; preds = %31, %29
  %35 = load ptr, ptr %10, align 8, !tbaa !39
  %.not67 = icmp eq ptr %35, null
  br i1 %.not67, label %36, label %57

36:                                               ; preds = %34
  %37 = load ptr, ptr %11, align 8, !tbaa !22
  %.not68 = icmp eq ptr %37, null
  br i1 %.not68, label %57, label %read_packet_wrapper.exit

read_packet_wrapper.exit:                         ; preds = %36
  %38 = load ptr, ptr %12, align 8, !tbaa !18
  %39 = tail call i32 %37(ptr noundef %38, ptr noundef %.05979, i32 noundef %.05880) #14
  %40 = icmp eq i32 %39, -541478725
  br i1 %40, label %41, label %43

41:                                               ; preds = %read_packet_wrapper.exit
  %42 = getelementptr inbounds nuw i8, ptr %0, i64 80
  store i32 1, ptr %42, align 8, !tbaa !46
  br label %.loopexit

43:                                               ; preds = %read_packet_wrapper.exit
  %44 = icmp slt i32 %39, 0
  br i1 %44, label %45, label %48

45:                                               ; preds = %43
  %46 = getelementptr inbounds nuw i8, ptr %0, i64 80
  store i32 1, ptr %46, align 8, !tbaa !46
  %47 = getelementptr inbounds nuw i8, ptr %0, i64 84
  store i32 %39, ptr %47, align 4, !tbaa !34
  br label %.loopexit

48:                                               ; preds = %43
  %49 = zext nneg i32 %39 to i64
  %50 = load i64, ptr %13, align 8, !tbaa !27
  %51 = add nsw i64 %50, %49
  store i64 %51, ptr %13, align 8, !tbaa !27
  %52 = load i64, ptr %14, align 8, !tbaa !49
  %53 = add nsw i64 %52, %49
  store i64 %53, ptr %14, align 8, !tbaa !49
  store i64 %53, ptr %15, align 8, !tbaa !50
  %54 = sub nsw i32 %.05880, %39
  %55 = getelementptr inbounds nuw i8, ptr %.05979, i64 %49
  %56 = load ptr, ptr %16, align 8, !tbaa !4
  store ptr %56, ptr %6, align 8, !tbaa !16
  store ptr %56, ptr %5, align 8, !tbaa !19
  br label %71

57:                                               ; preds = %36, %34, %31
  tail call fastcc void @fill_buffer(ptr noundef nonnull %0)
  %58 = load ptr, ptr %5, align 8, !tbaa !19
  %59 = load ptr, ptr %6, align 8, !tbaa !16
  %60 = ptrtoint ptr %58 to i64
  %61 = ptrtoint ptr %59 to i64
  %62 = sub i64 %60, %61
  %63 = and i64 %62, 4294967295
  %64 = icmp eq i64 %63, 0
  br i1 %64, label %.loopexit, label %71

65:                                               ; preds = %27
  %sext = shl i64 %24, 32
  %66 = ashr exact i64 %sext, 32
  tail call void @llvm.memcpy.p0.p0.i64(ptr align 1 %.05979, ptr align 1 %18, i64 %66, i1 false)
  %67 = getelementptr inbounds i8, ptr %.05979, i64 %66
  %68 = load ptr, ptr %6, align 8, !tbaa !16
  %69 = getelementptr inbounds i8, ptr %68, i64 %66
  store ptr %69, ptr %6, align 8, !tbaa !16
  %70 = sub nsw i32 %.05880, %25
  br label %71

71:                                               ; preds = %48, %57, %65
  %72 = phi ptr [ %59, %57 ], [ %56, %48 ], [ %69, %65 ]
  %.160 = phi ptr [ %.05979, %57 ], [ %55, %48 ], [ %67, %65 ]
  %.1 = phi i32 [ %.05880, %57 ], [ %54, %48 ], [ %70, %65 ]
  %73 = icmp sgt i32 %.1, 0
  br i1 %73, label %17, label %.loopexit, !llvm.loop !53

.loopexit:                                        ; preds = %71, %57, %45, %41
  %.05878 = phi i32 [ %.05880, %45 ], [ %.05880, %41 ], [ %.1, %71 ], [ %.05880, %57 ]
  %74 = icmp eq i32 %2, %.05878
  br i1 %74, label %.loopexit.thread, label %avio_feof.exit.thread

.loopexit.thread:                                 ; preds = %3, %.loopexit
  %.0587888 = phi i32 [ %.05878, %.loopexit ], [ %2, %3 ]
  %75 = getelementptr inbounds nuw i8, ptr %0, i64 84
  %76 = load i32, ptr %75, align 4, !tbaa !34
  %.not69 = icmp eq i32 %76, 0
  br i1 %.not69, label %77, label %81

77:                                               ; preds = %.loopexit.thread
  %78 = getelementptr inbounds nuw i8, ptr %0, i64 80
  %79 = load i32, ptr %78, align 8, !tbaa !46
  %.not6.i = icmp eq i32 %79, 0
  br i1 %.not6.i, label %avio_feof.exit.thread, label %avio_feof.exit

avio_feof.exit:                                   ; preds = %77
  store i32 0, ptr %78, align 8, !tbaa !46
  tail call fastcc void @fill_buffer(ptr noundef nonnull %0)
  %.pre.i = load i32, ptr %78, align 8, !tbaa !46
  %.not70 = icmp eq i32 %.pre.i, 0
  br i1 %.not70, label %avio_feof.exit.thread, label %81

avio_feof.exit.thread:                            ; preds = %77, %avio_feof.exit, %.loopexit
  %.0587887 = phi i32 [ %.0587888, %77 ], [ %.0587888, %avio_feof.exit ], [ %.05878, %.loopexit ]
  %80 = sub nsw i32 %2, %.0587887
  br label %81

81:                                               ; preds = %avio_feof.exit, %.loopexit.thread, %avio_feof.exit.thread
  %.0 = phi i32 [ %80, %avio_feof.exit.thread ], [ %76, %.loopexit.thread ], [ -541478725, %avio_feof.exit ]
  ret i32 %.0
}